Certificate:
    Data:
        Version: 3 (0x2)
        Serial Number: 0 (0x0)
    Signature Algorithm: sha256WithRSAEncryption
        Issuer: C=US, ST=New York, L=Cohoes, O=Casjays Developments, OU=Casjays Developments, CN=Casjays Developments/emailAddress=ssl-admin@casjaysdev.com
        Validity
            Not Before: Dec 15 10:43:31 2018 GMT
            Not After : Dec 12 10:43:31 2028 GMT
        Subject: C=US, ST=New York, L=Amsterdam, O=Casjays Developments, OU=Casjays Developments, CN=localhost/emailAddress=ssl-admin@ca.casjay.in
        Subject Public Key Info:
            Public Key Algorithm: rsaEncryption
                Public-Key: (2048 bit)
                Modulus:
                    00:9b:a0:77:fa:8f:21:b2:03:66:d0:d3:ea:e9:be:
                    4b:54:c0:34:13:c7:15:66:5b:c9:6a:c0:ee:7a:c0:
                    85:91:c3:b0:d4:21:fc:ac:04:a6:87:78:3c:6b:10:
                    eb:20:db:04:b1:7f:60:79:ff:cf:4d:c5:ec:4c:04:
                    0d:94:d4:30:8b:18:4e:ca:6e:b6:40:3f:21:35:b4:
                    34:08:81:e1:4c:1b:e9:d8:d9:5e:65:95:b3:0c:cf:
                    bc:54:77:a8:12:ec:2c:4a:44:f6:d1:00:ef:01:5d:
                    d4:be:c0:c8:88:d5:87:65:18:1c:d8:79:94:5f:29:
                    d8:84:43:48:b9:80:2f:90:dd:3e:84:bb:76:ab:84:
                    a3:e4:09:eb:48:c6:b6:1e:03:d1:ef:82:c7:7a:10:
                    ad:dd:5a:74:96:94:13:fc:4e:0e:78:04:a9:f8:b5:
                    81:74:b7:cf:2b:a8:4e:cc:07:e3:91:28:22:d9:a4:
                    fe:b4:d4:4c:89:8c:98:1e:50:14:ab:c3:79:03:c2:
                    dc:f9:fe:41:8a:38:72:36:16:b9:b7:8a:34:f5:11:
                    42:96:4e:e5:09:7f:15:63:a1:f4:ad:87:46:38:1b:
                    e8:47:42:69:04:72:d7:13:41:ed:10:5b:f0:19:69:
                    b2:a9:5e:e5:0e:31:aa:82:d8:55:80:69:52:62:6b:
                    a5:83
                Exponent: 65537 (0x10001)
        X509v3 extensions:
            X509v3 Subject Alternative Name: 
                DNS:apmpproject.org, DNS:bugs.one, DNS:cachetagalong.com, DNS:casjay.cloud, DNS:casjay.com, DNS:casjaydns.com, DNS:casjay.email, DNS:casjaygames.com, DNS:casjayhak.com, DNS:casjay.help, DNS:casjay.info, DNS:casjay.net, DNS:casjay.one, DNS:casjay.org, DNS:casjay.recipes, DNS:casjaysdev.com, DNS:casjay.shop, DNS:casjay.tel, DNS:casjay.us, DNS:casjay.xyz, DNS:casj.biz, DNS:chmweb.info, DNS:kellymalak.us, DNS:malaks.us, DNS:masonmalak.us, DNS:mileymalak.us, DNS:mmmalak.us, DNS:mpmalak.com, DNS:paranormal.one, DNS:secureit.blog, DNS:sqldb.us, DNS:whatknots404.com, DNS:*.apmpproject.org, DNS:*.bugs.one, DNS:*.cachetagalong.com, DNS:*.casjay.cloud, DNS:*.casjay.com, DNS:*.casjaydns.com, DNS:*.casjay.email, DNS:*.casjaygames.com, DNS:*.casjayhak.com, DNS:*.casjay.help, DNS:*.casjay.in, DNS:*.casjay.info, DNS:*.casjay.net, DNS:*.casjay.one, DNS:*.casjay.org, DNS:*.casjay.recipes, DNS:*.casjaysdev.com, DNS:*.casjay.shop, DNS:*.casjay.tel, DNS:*.casjay.us, DNS:*.casjay.xyz, DNS:*.casj.biz, DNS:*.chmweb.info, DNS:*.kellymalak.us, DNS:*.malaks.us, DNS:*.masonmalak.us, DNS:*.mileymalak.us, DNS:*.mmmalak.us, DNS:*.mpmalak.com, DNS:*.paranormal.one, DNS:*.secureit.blog, DNS:*.sqldb.us, DNS:*.whatknots404.com, DNS:localhost, DNS:*.localdomain, DNS:*.local, DNS:*.onion
            X509v3 Basic Constraints: 
                CA:FALSE
            Netscape Cert Type: 
                SSL Client, SSL Server, S/MIME, Object Signing
            Netscape Comment: 
                Casjays Developments CA
            X509v3 Subject Key Identifier: 
                13:8D:D7:86:71:7A:55:99:61:0A:AA:EF:50:68:8B:F9:8B:26:66:17
            X509v3 Authority Key Identifier: 
                keyid:CE:62:A0:43:94:60:69:7D:0F:1F:1B:54:5C:60:E6:64:DE:23:2F:BB
                DirName:/C=US/ST=New York/L=Cohoes/O=Casjays Developments/OU=Casjays Developments/CN=Casjays Developments/emailAddress=ssl-admin@casjaysdev.com
                serial:FD:B9:01:B8:48:2A:EA:E3

            Netscape Base Url: 
                http://ca.casjay.net/
            Netscape Revocation Url: 
                http://ca.casjay.net/revoke.crl
            Netscape Renewal Url: 
                http://ca.casjay.net/renewel.php
            Netscape CA Revocation Url: 
                http://ca.casjay.net/ca-revoke.crl
            Netscape CA Policy Url: 
                http://ca.casjay.net/ca-renewel.php
            X509v3 Key Usage: 
                Digital Signature, Non Repudiation, Key Encipherment
    Signature Algorithm: sha256WithRSAEncryption
         07:46:5f:81:af:d3:e0:a7:92:f3:73:9a:78:f7:6e:3c:29:d3:
         74:06:a2:1c:22:65:9f:b6:e2:28:cd:03:81:f5:07:08:fd:8e:
         12:30:7a:2a:28:66:93:58:f8:3b:3e:2d:23:c7:6f:38:88:bb:
         9e:dc:95:57:58:d0:82:84:cf:be:69:08:90:52:92:1a:71:6b:
         4f:f5:83:f1:63:8a:1a:a6:80:fe:ba:00:ae:d4:ae:17:a8:30:
         a2:87:d8:1c:ac:86:dd:f7:f9:7f:48:d5:e5:09:27:a9:cc:3e:
         5e:27:62:95:cc:7a:e3:92:8f:96:56:62:44:25:1b:49:a1:dd:
         60:42:7b:ef:48:7c:36:30:c0:9a:10:7d:bd:2b:00:64:ba:2c:
         1c:70:50:a6:73:c2:2f:17:f9:ab:d6:1c:46:9f:04:42:cb:6d:
         fa:98:8a:25:4b:e3:59:ae:15:86:b8:41:c1:d2:78:61:78:e8:
         39:ed:3f:f9:b3:61:35:f2:ed:a0:70:ad:1e:04:93:c3:3f:58:
         de:8f:bb:3a:6e:31:8a:6b:91:43:ad:b5:f2:e5:f6:91:80:0b:
         fb:81:43:eb:ee:fb:1f:53:e7:90:dc:9d:8b:a7:93:4a:16:1c:
         68:30:5d:dd:0c:8c:9d:f9:e1:f0:64:81:11:bf:2d:01:69:e6:
         aa:01:ff:cf:4d:43:52:74:e8:7b:32:f9:38:35:cd:22:d4:4e:
         ad:d8:ae:56:7b:93:87:21:a1:78:b9:52:39:95:c6:fd:fc:b4:
         37:01:14:9f:d5:7d:fd:46:5f:08:02:23:69:e0:b0:d2:8e:cf:
         ba:f2:7b:58:4d:96:7f:ef:b4:36:be:7b:c7:7d:04:a3:0d:b2:
         df:7d:91:fd:f0:87:5f:fc:c2:51:fd:df:c3:5d:40:b5:b1:6a:
         6e:ea:aa:5c:0b:02:93:25:5d:cf:a3:b3:9b:e2:df:bf:c2:fa:
         06:67:0b:44:9e:bc:95:74:92:5e:44:51:3c:cc:f3:bc:16:97:
         8d:26:da:10:01:21:d8:ba:4a:bd:f9:9b:4b:38:e5:cc:56:57:
         79:cf:77:9c:77:33:17:f2:2d:da:82:18:3d:1a:43:3b:cc:21:
         1f:64:da:e4:80:60:d4:fa:94:49:74:d9:9d:b4:9a:35:a6:5e:
         bd:e0:b8:96:7b:87:83:06:32:2c:60:3c:d6:36:92:ef:19:c6:
         c1:87:6a:cd:37:45:38:65:8a:f8:29:e6:c4:d3:ed:ef:86:89:
         4f:86:88:ec:0e:71:fa:a9:60:dc:c7:b9:5a:ff:e8:1b:7b:ee:
         40:1f:11:72:45:6d:cd:1c:dd:4f:82:f1:c7:9f:ac:67:60:fe:
         f9:c9:68:69:46:78:d4:fd
-----BEGIN CERTIFICATE-----
MIILLDCCCRSgAwIBAgIBADANBgkqhkiG9w0BAQsFADCBtzELMAkGA1UEBhMCVVMx
ETAPBgNVBAgTCE5ldyBZb3JrMQ8wDQYDVQQHEwZDb2hvZXMxHTAbBgNVBAoTFENh
c2pheXMgRGV2ZWxvcG1lbnRzMR0wGwYDVQQLExRDYXNqYXlzIERldmVsb3BtZW50
czEdMBsGA1UEAxMUQ2FzamF5cyBEZXZlbG9wbWVudHMxJzAlBgkqhkiG9w0BCQEW
GHNzbC1hZG1pbkBjYXNqYXlzZGV2LmNvbTAeFw0xODEyMTUxMDQzMzFaFw0yODEy
MTIxMDQzMzFaMIGtMQswCQYDVQQGEwJVUzERMA8GA1UECBMITmV3IFlvcmsxEjAQ
BgNVBAcTCUFtc3RlcmRhbTEdMBsGA1UEChMUQ2FzamF5cyBEZXZlbG9wbWVudHMx
HTAbBgNVBAsTFENhc2pheXMgRGV2ZWxvcG1lbnRzMRIwEAYDVQQDEwlsb2NhbGhv
c3QxJTAjBgkqhkiG9w0BCQEWFnNzbC1hZG1pbkBjYS5jYXNqYXkuaW4wggEiMA0G
CSqGSIb3DQEBAQUAA4IBDwAwggEKAoIBAQCboHf6jyGyA2bQ0+rpvktUwDQTxxVm
W8lqwO56wIWRw7DUIfysBKaHeDxrEOsg2wSxf2B5/89NxexMBA2U1DCLGE7KbrZA
PyE1tDQIgeFMG+nY2V5llbMMz7xUd6gS7CxKRPbRAO8BXdS+wMiI1YdlGBzYeZRf
KdiEQ0i5gC+Q3T6Eu3arhKPkCetIxrYeA9Hvgsd6EK3dWnSWlBP8Tg54BKn4tYF0
t88rqE7MB+ORKCLZpP601EyJjJgeUBSrw3kDwtz5/kGKOHI2Frm3ijT1EUKWTuUJ
fxVjofSth0Y4G+hHQmkEctcTQe0QW/AZabKpXuUOMaqC2FWAaVJia6WDAgMBAAGj
ggZJMIIGRTCCA/IGA1UdEQSCA+kwggPlgg9hcG1wcHJvamVjdC5vcmeCCGJ1Z3Mu
b25lghFjYWNoZXRhZ2Fsb25nLmNvbYIMY2FzamF5LmNsb3VkggpjYXNqYXkuY29t
gg1jYXNqYXlkbnMuY29tggxjYXNqYXkuZW1haWyCD2Nhc2pheWdhbWVzLmNvbYIN
Y2FzamF5aGFrLmNvbYILY2FzamF5LmhlbHCCC2Nhc2pheS5pbmZvggpjYXNqYXku
bmV0ggpjYXNqYXkub25lggpjYXNqYXkub3Jngg5jYXNqYXkucmVjaXBlc4IOY2Fz
amF5c2Rldi5jb22CC2Nhc2pheS5zaG9wggpjYXNqYXkudGVsggljYXNqYXkudXOC
CmNhc2pheS54eXqCCGNhc2ouYml6ggtjaG13ZWIuaW5mb4INa2VsbHltYWxhay51
c4IJbWFsYWtzLnVzgg1tYXNvbm1hbGFrLnVzgg1taWxleW1hbGFrLnVzggptbW1h
bGFrLnVzggttcG1hbGFrLmNvbYIOcGFyYW5vcm1hbC5vbmWCDXNlY3VyZWl0LmJs
b2eCCHNxbGRiLnVzghB3aGF0a25vdHM0MDQuY29tghEqLmFwbXBwcm9qZWN0Lm9y
Z4IKKi5idWdzLm9uZYITKi5jYWNoZXRhZ2Fsb25nLmNvbYIOKi5jYXNqYXkuY2xv
dWSCDCouY2FzamF5LmNvbYIPKi5jYXNqYXlkbnMuY29tgg4qLmNhc2pheS5lbWFp
bIIRKi5jYXNqYXlnYW1lcy5jb22CDyouY2FzamF5aGFrLmNvbYINKi5jYXNqYXku
aGVscIILKi5jYXNqYXkuaW6CDSouY2FzamF5LmluZm+CDCouY2FzamF5Lm5ldIIM
Ki5jYXNqYXkub25lggwqLmNhc2pheS5vcmeCECouY2FzamF5LnJlY2lwZXOCECou
Y2FzamF5c2Rldi5jb22CDSouY2FzamF5LnNob3CCDCouY2FzamF5LnRlbIILKi5j
YXNqYXkudXOCDCouY2FzamF5Lnh5eoIKKi5jYXNqLmJpeoINKi5jaG13ZWIuaW5m
b4IPKi5rZWxseW1hbGFrLnVzggsqLm1hbGFrcy51c4IPKi5tYXNvbm1hbGFrLnVz
gg8qLm1pbGV5bWFsYWsudXOCDCoubW1tYWxhay51c4INKi5tcG1hbGFrLmNvbYIQ
Ki5wYXJhbm9ybWFsLm9uZYIPKi5zZWN1cmVpdC5ibG9nggoqLnNxbGRiLnVzghIq
LndoYXRrbm90czQwNC5jb22CCWxvY2FsaG9zdIINKi5sb2NhbGRvbWFpboIHKi5s
b2NhbIIHKi5vbmlvbjAJBgNVHRMEAjAAMBEGCWCGSAGG+EIBAQQEAwIE8DAmBglg
hkgBhvhCAQ0EGRYXQ2FzamF5cyBEZXZlbG9wbWVudHMgQ0EwHQYDVR0OBBYEFBON
14ZxelWZYQqq71Boi/mLJmYXMIHsBgNVHSMEgeQwgeGAFM5ioEOUYGl9Dx8bVFxg
5mTeIy+7oYG9pIG6MIG3MQswCQYDVQQGEwJVUzERMA8GA1UECBMITmV3IFlvcmsx
DzANBgNVBAcTBkNvaG9lczEdMBsGA1UEChMUQ2FzamF5cyBEZXZlbG9wbWVudHMx
HTAbBgNVBAsTFENhc2pheXMgRGV2ZWxvcG1lbnRzMR0wGwYDVQQDExRDYXNqYXlz
IERldmVsb3BtZW50czEnMCUGCSqGSIb3DQEJARYYc3NsLWFkbWluQGNhc2pheXNk
ZXYuY29tggkA/bkBuEgq6uMwJAYJYIZIAYb4QgECBBcWFWh0dHA6Ly9jYS5jYXNq
YXkubmV0LzAuBglghkgBhvhCAQMEIRYfaHR0cDovL2NhLmNhc2pheS5uZXQvcmV2
b2tlLmNybDAvBglghkgBhvhCAQcEIhYgaHR0cDovL2NhLmNhc2pheS5uZXQvcmVu
ZXdlbC5waHAwMQYJYIZIAYb4QgEEBCQWImh0dHA6Ly9jYS5jYXNqYXkubmV0L2Nh
LXJldm9rZS5jcmwwMgYJYIZIAYb4QgEIBCUWI2h0dHA6Ly9jYS5jYXNqYXkubmV0
L2NhLXJlbmV3ZWwucGhwMAsGA1UdDwQEAwIF4DANBgkqhkiG9w0BAQsFAAOCAgEA
B0Zfga/T4KeS83OaePduPCnTdAaiHCJln7biKM0DgfUHCP2OEjB6Kihmk1j4Oz4t
I8dvOIi7ntyVV1jQgoTPvmkIkFKSGnFrT/WD8WOKGqaA/roArtSuF6gwoofYHKyG
3ff5f0jV5Qknqcw+Xidilcx645KPllZiRCUbSaHdYEJ770h8NjDAmhB9vSsAZLos
HHBQpnPCLxf5q9YcRp8EQstt+piKJUvjWa4VhrhBwdJ4YXjoOe0/+bNhNfLtoHCt
HgSTwz9Y3o+7Om4ximuRQ6218uX2kYAL+4FD6+77H1PnkNydi6eTShYcaDBd3QyM
nfnh8GSBEb8tAWnmqgH/z01DUnToezL5ODXNItROrdiuVnuThyGheLlSOZXG/fy0
NwEUn9V9/UZfCAIjaeCw0o7PuvJ7WE2Wf++0Nr57x30Eow2y332R/fCHX/zCUf3f
w11AtbFqbuqqXAsCkyVdz6Ozm+Lfv8L6BmcLRJ68lXSSXkRRPMzzvBaXjSbaEAEh
2LpKvfmbSzjlzFZXec93nHczF/It2oIYPRpDO8whH2Ta5IBg1PqUSXTZnbSaNaZe
veC4lnuHgwYyLGA81jaS7xnGwYdqzTdFOGWK+CnmxNPt74aJT4aI7A5x+qlg3Me5
Wv/oG3vuQB8RckVtzRzdT4Lxx5+sZ2D++cloaUZ41P0=
-----END CERTIFICATE-----
